; Function Attrs: cold nounwind optsize uwtable
define internal void @uninit(ptr noundef readonly captures(none) %0) #0 {
  %2 = getelementptr inbounds nuw i8, ptr %0, i64 72
  %3 = load ptr, ptr %2, align 8, !tbaa !4
  %4 = getelementptr inbounds nuw i8, ptr %3, i64 96
  tail call void @av_freep(ptr noundef nonnull %4) #11
  %5 = getelementptr inbounds nuw i8, ptr %3, i64 108
  store i32 0, ptr %5, align 4, !tbaa !26
  %6 = getelementptr inbounds nuw i8, ptr %3, i64 104
  store i32 0, ptr %6, align 8, !tbaa !27
  ret void
}